; Function Attrs: mustprogress nounwind uwtable
define hidden void @_ZN13TemplateTable5dloadEv() local_unnamed_addr #0 align 2 {
  %1 = alloca %class.Address, align 16
  %2 = alloca %class.Address, align 16
  tail call void @_ZN13TemplateTable10transitionE8TosStateS0_(i32 noundef 9, i32 noundef 7) #8
  call void @llvm.lifetime.start.p0(i64 64, ptr nonnull %1)
  %3 = load ptr, ptr @_ZN13TemplateTable5_masmE, align 8
  %4 = load i8, ptr @PrintInterpreter, align 1
  %5 = trunc i8 %4 to i1
  br i1 %5, label %6, label %_ZN12Disassembler4hookI25InterpreterMacroAssemblerEEPT_PKciS3_.exit.i

6:                                                ; preds = %0
  tail call void @_ZN12Disassembler5_hookEPKciP14MacroAssembler(ptr noundef nonnull @.str, i32 noundef 624, ptr noundef %3) #8
  br label %_ZN12Disassembler4hookI25InterpreterMacroAssemblerEEPT_PKciS3_.exit.i

_ZN12Disassembler4hookI25InterpreterMacroAssemblerEEPT_PKciS3_.exit.i: ; preds = %6, %0
  store <4 x i32> <i32 13, i32 -1, i32 -1, i32 -1>, ptr %1, align 16, !alias.scope !65
  %7 = getelementptr inbounds i8, ptr %1, i64 16
  store i32 1, ptr %7, align 16, !alias.scope !65
  %8 = getelementptr inbounds i8, ptr %1, i64 20
  store i8 0, ptr %8, align 4, !alias.scope !65
  %9 = getelementptr inbounds i8, ptr %1, i64 24
  store ptr getelementptr inbounds inrange(-16, 72) (i8, ptr @_ZTV10Relocation, i64 16), ptr %9, align 8, !alias.scope !65
  %10 = getelementptr inbounds i8, ptr %1, i64 32
  store ptr null, ptr %10, align 16, !alias.scope !65
  %11 = getelementptr inbounds i8, ptr %1, i64 40
  store i32 0, ptr %11, align 8, !alias.scope !65
  %12 = call noundef i32 @_ZN14MacroAssembler18load_unsigned_byteE8Register7Address(ptr noundef nonnull align 8 dereferenceable(40) %3, i32 3, ptr noundef nonnull %1) #8
  %13 = load ptr, ptr @_ZN13TemplateTable5_masmE, align 8
  %14 = load i8, ptr @PrintInterpreter, align 1
  %15 = trunc i8 %14 to i1
  br i1 %15, label %16, label %_ZN13TemplateTable12locals_indexE8Registeri.exit

16:                                               ; preds = %_ZN12Disassembler4hookI25InterpreterMacroAssemblerEEPT_PKciS3_.exit.i
  call void @_ZN12Disassembler5_hookEPKciP14MacroAssembler(ptr noundef nonnull @.str, i32 noundef 625, ptr noundef %13) #8
  br label %_ZN13TemplateTable12locals_indexE8Registeri.exit

_ZN13TemplateTable12locals_indexE8Registeri.exit: ; preds = %_ZN12Disassembler4hookI25InterpreterMacroAssemblerEEPT_PKciS3_.exit.i, %16
  call void @_ZN9Assembler4negqE8Register(ptr noundef nonnull align 8 dereferenceable(40) %13, i32 3) #8
  call void @llvm.lifetime.end.p0(i64 64, ptr nonnull %1)
  %17 = load ptr, ptr @_ZN13TemplateTable5_masmE, align 8
  %18 = load i8, ptr @PrintInterpreter, align 1
  %19 = trunc i8 %18 to i1
  br i1 %19, label %20, label %_ZN12Disassembler4hookI25InterpreterMacroAssemblerEEPT_PKciS3_.exit

20:                                               ; preds = %_ZN13TemplateTable12locals_indexE8Registeri.exit
  call void @_ZN12Disassembler5_hookEPKciP14MacroAssembler(ptr noundef nonnull @.str, i32 noundef 709, ptr noundef %17) #8
  br label %_ZN12Disassembler4hookI25InterpreterMacroAssemblerEEPT_PKciS3_.exit

_ZN12Disassembler4hookI25InterpreterMacroAssemblerEEPT_PKciS3_.exit: ; preds = %_ZN13TemplateTable12locals_indexE8Registeri.exit, %20
  store <4 x i32> <i32 14, i32 3, i32 -1, i32 3>, ptr %2, align 16, !alias.scope !68
  %21 = getelementptr inbounds i8, ptr %2, i64 16
  store i32 -8, ptr %21, align 16, !alias.scope !68
  %22 = getelementptr inbounds i8, ptr %2, i64 20
  store i8 0, ptr %22, align 4, !alias.scope !68
  %23 = getelementptr inbounds i8, ptr %2, i64 24
  store ptr getelementptr inbounds inrange(-16, 72) (i8, ptr @_ZTV10Relocation, i64 16), ptr %23, align 8, !alias.scope !68
  %24 = getelementptr inbounds i8, ptr %2, i64 32
  store ptr null, ptr %24, align 16, !alias.scope !68
  %25 = getelementptr inbounds i8, ptr %2, i64 40
  store i32 0, ptr %25, align 8, !alias.scope !68
  call void @_ZN14MacroAssembler11load_doubleE7Address(ptr noundef nonnull align 8 dereferenceable(40) %17, ptr noundef nonnull %2) #8
  ret void
}